target datalayout = "e-m:e-p270:32:32-p271:32:32-p272:64:64-i64:64-i128:128-f80:128-n8:16:32:64-S128"
target triple = "x86_64-pc-linux-gnu"

%struct.RelationData = type { %struct.RelFileLocator, ptr, i32, i32, i8, i8, i8, i8, i8, i32, i32, i32, i32, ptr, ptr, i32, %struct.LockInfoData, ptr, ptr, ptr, ptr, ptr, i8, ptr, ptr, ptr, ptr, ptr, ptr, i32, ptr, i8, ptr, ptr, i32, i8, i32, ptr, i8, ptr, ptr, ptr, ptr, ptr, ptr, ptr, i32, ptr, ptr, ptr, ptr, ptr, ptr, ptr, ptr, ptr, ptr, ptr, ptr, ptr, ptr, ptr, ptr, ptr, ptr, ptr, i32, i8, ptr }
%struct.RelFileLocator = type { i32, i32, i32 }
%struct.LockInfoData = type { %struct.LockRelId }
%struct.LockRelId = type { i32, i32 }
%struct.FormData_pg_class = type { i32, %struct.nameData, i32, i32, i32, i32, i32, i32, i32, i32, float, i32, i32, i8, i8, i8, i8, i16, i16, i8, i8, i8, i8, i8, i8, i8, i8, i32, i32, i32 }
%struct.nameData = type { [64 x i8] }
%struct.ItemPointerData = type { %struct.BlockIdData, i16 }
%struct.BlockIdData = type { i16, i16 }
%struct.IndexScanDescData = type { ptr, ptr, ptr, i32, i32, ptr, ptr, i8, i8, i8, i8, i8, ptr, ptr, ptr, ptr, ptr, %struct.ItemPointerData, i8, ptr, i8, ptr, ptr, i8, ptr }
%struct.BTScanOpaqueData = type { i8, i32, ptr, i32, i8, i8, i8, ptr, ptr, ptr, ptr, i32, ptr, ptr, i32, %struct.BTScanPosData, %struct.BTScanPosData }
%struct.BTScanPosData = type { i32, i32, i32, i32, i64, i32, i32, i8, i8, i32, i32, i32, [1358 x %struct.BTScanPosItem] }
%struct.BTScanPosItem = type { %struct.ItemPointerData, i16, i16 }
%struct.SnapshotData = type { i32, i32, i32, ptr, i32, ptr, i32, i8, i8, i8, i32, i32, ptr, i32, i32, %struct.pairingheap_node, i64 }
%struct.pairingheap_node = type { ptr, ptr, ptr }

@wal_level = external global i32, align 4

; Function Attrs: nounwind uwtable
define internal void @_bt_drop_lock_and_maybe_pin(ptr noundef %0, ptr noundef %1) #0 {
  %3 = alloca ptr, align 8
  %4 = alloca ptr, align 8
  store ptr %0, ptr %3, align 8
  store ptr %1, ptr %4, align 8
  %5 = load ptr, ptr %3, align 8
  %6 = getelementptr inbounds nuw %struct.IndexScanDescData, ptr %5, i32 0, i32 1
  %7 = load ptr, ptr %6, align 8
  %8 = load ptr, ptr %4, align 8
  %9 = getelementptr inbounds nuw %struct.BTScanPosData, ptr %8, i32 0, i32 0
  %10 = load i32, ptr %9, align 8
  call void @_bt_unlockbuf(ptr noundef %7, i32 noundef %10)
  %11 = load ptr, ptr %3, align 8
  %12 = getelementptr inbounds nuw %struct.IndexScanDescData, ptr %11, i32 0, i32 2
  %13 = load ptr, ptr %12, align 8
  %14 = getelementptr inbounds nuw %struct.SnapshotData, ptr %13, i32 0, i32 0
  %15 = load i32, ptr %14, align 8
  %16 = icmp eq i32 %15, 0
  br i1 %16, label %24, label %17

17:                                               ; preds = %2
  %18 = load ptr, ptr %3, align 8
  %19 = getelementptr inbounds nuw %struct.IndexScanDescData, ptr %18, i32 0, i32 2
  %20 = load ptr, ptr %19, align 8
  %21 = getelementptr inbounds nuw %struct.SnapshotData, ptr %20, i32 0, i32 0
  %22 = load i32, ptr %21, align 8
  %23 = icmp eq i32 %22, 5
  br i1 %23, label %24, label %62

24:                                               ; preds = %17, %2
  %25 = load ptr, ptr %3, align 8
  %26 = getelementptr inbounds nuw %struct.IndexScanDescData, ptr %25, i32 0, i32 1
  %27 = load ptr, ptr %26, align 8
  %28 = getelementptr inbounds nuw %struct.RelationData, ptr %27, i32 0, i32 13
  %29 = load ptr, ptr %28, align 8
  %30 = getelementptr inbounds nuw %struct.FormData_pg_class, ptr %29, i32 0, i32 15
  %31 = load i8, ptr %30, align 2
  %32 = sext i8 %31 to i32
  %33 = icmp eq i32 %32, 112
  br i1 %33, label %34, label %62

34:                                               ; preds = %24
  %35 = load i32, ptr @wal_level, align 4
  %36 = icmp sge i32 %35, 1
  br i1 %36, label %51, label %37

37:                                               ; preds = %34
  %38 = load ptr, ptr %3, align 8
  %39 = getelementptr inbounds nuw %struct.IndexScanDescData, ptr %38, i32 0, i32 1
  %40 = load ptr, ptr %39, align 8
  %41 = getelementptr inbounds nuw %struct.RelationData, ptr %40, i32 0, i32 9
  %42 = load i32, ptr %41, align 8
  %43 = icmp eq i32 %42, 0
  br i1 %43, label %44, label %62

44:                                               ; preds = %37
  %45 = load ptr, ptr %3, align 8
  %46 = getelementptr inbounds nuw %struct.IndexScanDescData, ptr %45, i32 0, i32 1
  %47 = load ptr, ptr %46, align 8
  %48 = getelementptr inbounds nuw %struct.RelationData, ptr %47, i32 0, i32 11
  %49 = load i32, ptr %48, align 8
  %50 = icmp eq i32 %49, 0
  br i1 %50, label %51, label %62

51:                                               ; preds = %44, %34
  %52 = load ptr, ptr %3, align 8
  %53 = getelementptr inbounds nuw %struct.IndexScanDescData, ptr %52, i32 0, i32 7
  %54 = load i8, ptr %53, align 8, !range !4, !noundef !5
  %55 = trunc i8 %54 to i1
  br i1 %55, label %62, label %56

56:                                               ; preds = %51
  %57 = load ptr, ptr %4, align 8
  %58 = getelementptr inbounds nuw %struct.BTScanPosData, ptr %57, i32 0, i32 0
  %59 = load i32, ptr %58, align 8
  call void @ReleaseBuffer(i32 noundef %59)
  %60 = load ptr, ptr %4, align 8
  %61 = getelementptr inbounds nuw %struct.BTScanPosData, ptr %60, i32 0, i32 0
  store i32 0, ptr %61, align 8
  br label %62

62:                                               ; preds = %56, %51, %44, %37, %24, %17
  ret void
}

; Function Attrs: nounwind uwtable
define internal zeroext i1 @_bt_readfirstpage(ptr noundef %0, i16 noundef zeroext %1, i32 noundef %2) #0 {
  %4 = alloca i1, align 1
  %5 = alloca ptr, align 8
  %6 = alloca i16, align 2
  %7 = alloca i32, align 4
  %8 = alloca ptr, align 8
  %9 = alloca i32, align 4
  store ptr %0, ptr %5, align 8
  store i16 %1, ptr %6, align 2
  store i32 %2, ptr %7, align 4
  call void @llvm.lifetime.start.p0(i64 8, ptr %8) #7
  %10 = load ptr, ptr %5, align 8
  %11 = getelementptr inbounds nuw %struct.IndexScanDescData, ptr %10, i32 0, i32 12
  %12 = load ptr, ptr %11, align 8
  store ptr %12, ptr %8, align 8
  %13 = load ptr, ptr %8, align 8
  %14 = getelementptr inbounds nuw %struct.BTScanOpaqueData, ptr %13, i32 0, i32 11
  store i32 0, ptr %14, align 8
  %15 = load ptr, ptr %8, align 8
  %16 = getelementptr inbounds nuw %struct.BTScanOpaqueData, ptr %15, i32 0, i32 14
  store i32 -1, ptr %16, align 8
  %17 = load ptr, ptr %8, align 8
  %18 = getelementptr inbounds nuw %struct.BTScanOpaqueData, ptr %17, i32 0, i32 4
  %19 = load i8, ptr %18, align 4, !range !4, !noundef !5
  %20 = trunc i8 %19 to i1
  br i1 %20, label %21, label %30

21:                                               ; preds = %3
  %22 = load ptr, ptr %8, align 8
  %23 = getelementptr inbounds nuw %struct.BTScanOpaqueData, ptr %22, i32 0, i32 15
  %24 = getelementptr inbounds nuw %struct.BTScanPosData, ptr %23, i32 0, i32 7
  store i8 1, ptr %24, align 8
  %25 = load ptr, ptr %8, align 8
  %26 = getelementptr inbounds nuw %struct.BTScanOpaqueData, ptr %25, i32 0, i32 15
  %27 = getelementptr inbounds nuw %struct.BTScanPosData, ptr %26, i32 0, i32 8
  store i8 1, ptr %27, align 1
  %28 = load ptr, ptr %8, align 8
  %29 = getelementptr inbounds nuw %struct.BTScanOpaqueData, ptr %28, i32 0, i32 4
  store i8 0, ptr %29, align 4
  br label %48

30:                                               ; preds = %3
  %31 = load i32, ptr %7, align 4
  %32 = icmp eq i32 %31, 1
  br i1 %32, label %33, label %40

33:                                               ; preds = %30
  %34 = load ptr, ptr %8, align 8
  %35 = getelementptr inbounds nuw %struct.BTScanOpaqueData, ptr %34, i32 0, i32 15
  %36 = getelementptr inbounds nuw %struct.BTScanPosData, ptr %35, i32 0, i32 7
  store i8 0, ptr %36, align 8
  %37 = load ptr, ptr %8, align 8
  %38 = getelementptr inbounds nuw %struct.BTScanOpaqueData, ptr %37, i32 0, i32 15
  %39 = getelementptr inbounds nuw %struct.BTScanPosData, ptr %38, i32 0, i32 8
  store i8 1, ptr %39, align 1
  br label %47

40:                                               ; preds = %30
  %41 = load ptr, ptr %8, align 8
  %42 = getelementptr inbounds nuw %struct.BTScanOpaqueData, ptr %41, i32 0, i32 15
  %43 = getelementptr inbounds nuw %struct.BTScanPosData, ptr %42, i32 0, i32 7
  store i8 1, ptr %43, align 8
  %44 = load ptr, ptr %8, align 8
  %45 = getelementptr inbounds nuw %struct.BTScanOpaqueData, ptr %44, i32 0, i32 15
  %46 = getelementptr inbounds nuw %struct.BTScanPosData, ptr %45, i32 0, i32 8
  store i8 0, ptr %46, align 1
  br label %47

47:                                               ; preds = %40, %33
  br label %48

48:                                               ; preds = %47, %21
  %49 = load ptr, ptr %5, align 8
  %50 = load i32, ptr %7, align 4
  %51 = load i16, ptr %6, align 2
  %52 = call zeroext i1 @_bt_readpage(ptr noundef %49, i32 noundef %50, i16 noundef zeroext %51, i1 noundef zeroext true)
  br i1 %52, label %53, label %57

53:                                               ; preds = %48
  %54 = load ptr, ptr %5, align 8
  %55 = load ptr, ptr %8, align 8
  %56 = getelementptr inbounds nuw %struct.BTScanOpaqueData, ptr %55, i32 0, i32 15
  call void @_bt_drop_lock_and_maybe_pin(ptr noundef %54, ptr noundef %56)
  store i1 true, ptr %4, align 1
  store i32 1, ptr %9, align 4
  br label %70

57:                                               ; preds = %48
  %58 = load ptr, ptr %5, align 8
  %59 = getelementptr inbounds nuw %struct.IndexScanDescData, ptr %58, i32 0, i32 1
  %60 = load ptr, ptr %59, align 8
  %61 = load ptr, ptr %8, align 8
  %62 = getelementptr inbounds nuw %struct.BTScanOpaqueData, ptr %61, i32 0, i32 15
  %63 = getelementptr inbounds nuw %struct.BTScanPosData, ptr %62, i32 0, i32 0
  %64 = load i32, ptr %63, align 8
  call void @_bt_unlockbuf(ptr noundef %60, i32 noundef %64)
  %65 = load ptr, ptr %5, align 8
  %66 = load i32, ptr %7, align 4
  %67 = call zeroext i1 @_bt_steppage(ptr noundef %65, i32 noundef %66)
  br i1 %67, label %69, label %68

68:                                               ; preds = %57
  store i1 false, ptr %4, align 1
  store i32 1, ptr %9, align 4
  br label %70

69:                                               ; preds = %57
  store i1 true, ptr %4, align 1
  store i32 1, ptr %9, align 4
  br label %70

70:                                               ; preds = %69, %68, %53
  call void @llvm.lifetime.end.p0(i64 8, ptr %8) #7
  %71 = load i1, ptr %4, align 1
  ret i1 %71
}