; Function Attrs: nounwind uwtable
define internal fastcc noundef zeroext i1 @_bt_readfirstpage(ptr noundef %0, i16 noundef zeroext %1, i32 noundef %2) unnamed_addr #0 {
  %4 = getelementptr inbounds nuw i8, ptr %0, i64 56
  %5 = load ptr, ptr %4, align 8
  %6 = getelementptr inbounds nuw i8, ptr %5, i64 56
  store i32 0, ptr %6, align 8
  %7 = getelementptr inbounds nuw i8, ptr %5, i64 80
  store i32 -1, ptr %7, align 8
  %8 = getelementptr inbounds nuw i8, ptr %5, i64 20
  %9 = load i8, ptr %8, align 4, !range !5, !noundef !6
  %10 = trunc nuw i8 %9 to i1
  %11 = getelementptr inbounds nuw i8, ptr %5, i64 121
  br i1 %10, label %12, label %14

12:                                               ; preds = %3
  %13 = getelementptr inbounds nuw i8, ptr %5, i64 120
  store i8 1, ptr %13, align 8
  store i8 1, ptr %11, align 1
  store i8 0, ptr %8, align 4
  br label %19

14:                                               ; preds = %3
  %15 = icmp eq i32 %2, 1
  %16 = getelementptr inbounds nuw i8, ptr %5, i64 120
  br i1 %15, label %17, label %18

17:                                               ; preds = %14
  store i8 0, ptr %16, align 8
  store i8 1, ptr %11, align 1
  br label %19

18:                                               ; preds = %14
  store i8 1, ptr %16, align 8
  store i8 0, ptr %11, align 1
  br label %19

19:                                               ; preds = %17, %18, %12
  %20 = tail call fastcc zeroext i1 @_bt_readpage(ptr noundef nonnull %0, i32 noundef %2, i16 noundef zeroext %1, i1 noundef zeroext true)
  br i1 %20, label %21, label %53

21:                                               ; preds = %19
  %22 = getelementptr inbounds nuw i8, ptr %5, i64 88
  %23 = getelementptr inbounds nuw i8, ptr %0, i64 8
  %24 = load ptr, ptr %23, align 8
  %25 = load i32, ptr %22, align 8
  tail call void @_bt_unlockbuf(ptr noundef %24, i32 noundef %25) #7
  %26 = getelementptr inbounds nuw i8, ptr %0, i64 16
  %27 = load ptr, ptr %26, align 8
  %28 = load i32, ptr %27, align 8
  switch i32 %28, label %_bt_drop_lock_and_maybe_pin.exit [
    i32 0, label %29
    i32 5, label %29
  ]

29:                                               ; preds = %21, %21
  %30 = load ptr, ptr %23, align 8
  %31 = getelementptr inbounds nuw i8, ptr %30, i64 56
  %32 = load ptr, ptr %31, align 8
  %33 = getelementptr inbounds nuw i8, ptr %32, i64 114
  %34 = load i8, ptr %33, align 2
  %35 = icmp eq i8 %34, 112
  br i1 %35, label %36, label %_bt_drop_lock_and_maybe_pin.exit

36:                                               ; preds = %29
  %37 = load i32, ptr @wal_level, align 4
  %38 = icmp sgt i32 %37, 0
  br i1 %38, label %47, label %39

39:                                               ; preds = %36
  %40 = getelementptr inbounds nuw i8, ptr %30, i64 40
  %41 = load i32, ptr %40, align 8
  %42 = icmp eq i32 %41, 0
  br i1 %42, label %43, label %_bt_drop_lock_and_maybe_pin.exit

43:                                               ; preds = %39
  %44 = getelementptr inbounds nuw i8, ptr %30, i64 48
  %45 = load i32, ptr %44, align 8
  %46 = icmp eq i32 %45, 0
  br i1 %46, label %47, label %_bt_drop_lock_and_maybe_pin.exit

47:                                               ; preds = %43, %36
  %48 = getelementptr inbounds nuw i8, ptr %0, i64 48
  %49 = load i8, ptr %48, align 8, !range !5, !noundef !6
  %50 = trunc nuw i8 %49 to i1
  br i1 %50, label %_bt_drop_lock_and_maybe_pin.exit, label %51

51:                                               ; preds = %47
  %52 = load i32, ptr %22, align 8
  tail call void @ReleaseBuffer(i32 noundef %52) #7
  store i32 0, ptr %22, align 8
  br label %_bt_drop_lock_and_maybe_pin.exit

53:                                               ; preds = %19
  %54 = getelementptr inbounds nuw i8, ptr %0, i64 8
  %55 = load ptr, ptr %54, align 8
  %56 = getelementptr inbounds nuw i8, ptr %5, i64 88
  %57 = load i32, ptr %56, align 8
  tail call void @_bt_unlockbuf(ptr noundef %55, i32 noundef %57) #7
  %58 = tail call fastcc zeroext i1 @_bt_steppage(ptr noundef nonnull %0, i32 noundef %2)
  br label %_bt_drop_lock_and_maybe_pin.exit

_bt_drop_lock_and_maybe_pin.exit:                 ; preds = %51, %47, %43, %39, %29, %21, %53
  %.0 = phi i1 [ %58, %53 ], [ true, %21 ], [ true, %29 ], [ true, %39 ], [ true, %43 ], [ true, %47 ], [ true, %51 ]
  ret i1 %.0
}